; Function Attrs: cold noreturn nounwind uwtable
define internal void @report_manifest_error(ptr readnone captures(none) %0, ptr noundef %1, ...) #9 {
  %3 = alloca [1 x %struct.__va_list_tag], align 16
  call void @llvm.lifetime.start.p0(i64 24, ptr nonnull %3) #21
  call void @llvm.va_start.p0(ptr nonnull %3)
  call void @pg_log_generic_v(i32 noundef 4, i32 noundef 0, ptr noundef %1, ptr noundef nonnull %3) #21
  call void @llvm.va_end.p0(ptr nonnull %3)
  call void @exit(i32 noundef 1) #24
  unreachable
}